; Function Attrs: mustprogress uwtable
define void @_ZN9RSCoder16C2Ev(ptr nocapture noundef nonnull align 8 dereferenceable(64) %0) unnamed_addr #0 align 2 {
  %2 = getelementptr inbounds i8, ptr %0, i64 16
  store i8 0, ptr %2, align 8
  %3 = getelementptr inbounds i8, ptr %0, i64 20
  tail call void @llvm.memset.p0.i64(ptr noundef nonnull align 4 dereferenceable(44) %3, i8 0, i64 44, i1 false)
  %4 = tail call noalias noundef nonnull dereferenceable(1048564) ptr @_Znam(i64 noundef 1048564) #6
  store ptr %4, ptr %0, align 8
  %5 = tail call noalias noundef nonnull dereferenceable(262144) ptr @_Znam(i64 noundef 262144) #6
  %6 = getelementptr inbounds i8, ptr %0, i64 8
  store ptr %5, ptr %6, align 8
  br label %7

7:                                                ; preds = %7, %1
  %indvars.iv.i = phi i64 [ 0, %1 ], [ %indvars.iv.next.i, %7 ]
  %.01419.i = phi i32 [ 1, %1 ], [ %spec.select.i, %7 ]
  %8 = load ptr, ptr %6, align 8
  %9 = zext i32 %.01419.i to i64
  %10 = getelementptr inbounds i32, ptr %8, i64 %9
  %11 = trunc nuw nsw i64 %indvars.iv.i to i32
  store i32 %11, ptr %10, align 4
  %12 = load ptr, ptr %0, align 8
  %13 = getelementptr inbounds i32, ptr %12, i64 %indvars.iv.i
  store i32 %.01419.i, ptr %13, align 4
  %14 = load ptr, ptr %0, align 8
  %15 = getelementptr i32, ptr %14, i64 %indvars.iv.i
  %16 = getelementptr i8, ptr %15, i64 262140
  store i32 %.01419.i, ptr %16, align 4
  %17 = shl i32 %.01419.i, 1
  %18 = icmp ugt i32 %17, 65535
  %19 = xor i32 %17, 69643
  %spec.select.i = select i1 %18, i32 %19, i32 %17
  %indvars.iv.next.i = add nuw nsw i64 %indvars.iv.i, 1
  %exitcond.not.i = icmp eq i64 %indvars.iv.next.i, 65535
  br i1 %exitcond.not.i, label %20, label %7, !llvm.loop !4

20:                                               ; preds = %7
  %21 = load ptr, ptr %6, align 8
  store i32 131070, ptr %21, align 4
  br label %22

22:                                               ; preds = %22, %20
  %indvars.iv22.i = phi i64 [ 131070, %20 ], [ %indvars.iv.next23.i, %22 ]
  %23 = load ptr, ptr %0, align 8
  %24 = getelementptr inbounds i32, ptr %23, i64 %indvars.iv22.i
  store i32 0, ptr %24, align 4
  %indvars.iv.next23.i = add nuw nsw i64 %indvars.iv22.i, 1
  %exitcond25.not.i = icmp eq i64 %indvars.iv.next23.i, 262141
  br i1 %exitcond25.not.i, label %_ZN9RSCoder166gfInitEv.exit, label %22, !llvm.loop !6

_ZN9RSCoder166gfInitEv.exit:                      ; preds = %22
  ret void
}